target datalayout = "e-m:e-p270:32:32-p271:32:32-p272:64:64-i64:64-i128:128-f80:128-n8:16:32:64-S128"
target triple = "x86_64-pc-linux-gnu"

%struct.H5C_cache_entry_t = type { ptr, i64, i64, ptr, i8, ptr, i8, i8, i8, i8, i32, i8, i8, i8, i8, i8, i32, ptr, i32, i32, i32, i32, i32, i8, i8, ptr, ptr, ptr, ptr, ptr, ptr, i8, i32, i8, i64, ptr, i64, i64, i32, i8, i32, i32, i8, ptr, ptr, ptr }
%struct.H5SM_index_header_t = type { i32, i64, i64, i64, i64, i32, i64, i64, i64 }
%struct.H5O_mesg_loc_t = type { i32, i64 }
%struct.H5SM_sohm_t = type { i32, i32, i32, %union.anon.0 }
%union.anon.0 = type { %struct.H5O_mesg_loc_t }
%struct.H5SM_list_t = type { %struct.H5C_cache_entry_t, ptr, ptr }

@H5SM_init_g = global i8 0, align 1
@H5_libterm_g = external global i8, align 1
@.str.4 = private unnamed_addr constant [98 x i8] c"generated/home/dtcxzyw/WorkSpace/Projects/compilers/llvm-opt-benchmark/bench/hdf5/hdf5/src/H5SM.c\00", align 1
@H5E_SOHM_g = external global i64, align 8
@__func__.H5SM__find_in_list = private unnamed_addr constant [19 x i8] c"H5SM__find_in_list\00", align 1
@H5E_CANTCOMPARE_g = external global i64, align 8
@.str.125 = private unnamed_addr constant [30 x i8] c"can't compare message records\00", align 1

; Function Attrs: nounwind uwtable
define internal i32 @H5SM__find_in_list(ptr noundef %0, ptr noundef %1, ptr noundef %2, ptr noundef %3) #0 {
  %5 = alloca i32, align 4
  %6 = alloca ptr, align 8
  %7 = alloca ptr, align 8
  %8 = alloca ptr, align 8
  %9 = alloca ptr, align 8
  %10 = alloca i64, align 8
  %11 = alloca i32, align 4
  %12 = alloca i8, align 1
  %13 = alloca i32, align 4
  %14 = alloca i32, align 4
  store ptr %0, ptr %6, align 8, !tbaa !57
  store ptr %1, ptr %7, align 8, !tbaa !57
  store ptr %2, ptr %8, align 8, !tbaa !50
  store ptr %3, ptr %9, align 8, !tbaa !50
  call void @llvm.lifetime.start.p0(i64 8, ptr %10) #8
  call void @llvm.lifetime.start.p0(i64 4, ptr %11) #8
  store i32 0, ptr %11, align 4, !tbaa !14
  call void @llvm.lifetime.start.p0(i64 1, ptr %12) #8
  store i8 0, ptr %12, align 1, !tbaa !18
  %15 = load i8, ptr @H5SM_init_g, align 1, !tbaa !18, !range !20, !noundef !21
  %16 = trunc i8 %15 to i1
  br i1 %16, label %21, label %17

17:                                               ; preds = %4
  %18 = load i8, ptr @H5_libterm_g, align 1, !tbaa !18, !range !20, !noundef !21
  %19 = trunc i8 %18 to i1
  %20 = xor i1 %19, true
  br label %21

21:                                               ; preds = %17, %4
  %22 = phi i1 [ true, %4 ], [ %20, %17 ]
  %23 = xor i1 %22, true
  %24 = xor i1 %23, true
  %25 = zext i1 %24 to i32
  %26 = sext i32 %25 to i64
  %27 = call i64 @llvm.expect.i64(i64 %26, i64 1)
  %28 = icmp ne i64 %27, 0
  br i1 %28, label %29, label %116

29:                                               ; preds = %21
  %30 = load ptr, ptr %8, align 8, !tbaa !50
  %31 = icmp ne ptr %30, null
  br i1 %31, label %32, label %34

32:                                               ; preds = %29
  %33 = load ptr, ptr %8, align 8, !tbaa !50
  store i64 -1, ptr %33, align 8, !tbaa !16
  br label %34

34:                                               ; preds = %32, %29
  store i64 0, ptr %10, align 8, !tbaa !16
  br label %35

35:                                               ; preds = %110, %34
  %36 = load i64, ptr %10, align 8, !tbaa !16
  %37 = load ptr, ptr %6, align 8, !tbaa !57
  %38 = getelementptr inbounds nuw %struct.H5SM_list_t, ptr %37, i32 0, i32 1
  %39 = load ptr, ptr %38, align 8, !tbaa !126
  %40 = getelementptr inbounds nuw %struct.H5SM_index_header_t, ptr %39, i32 0, i32 2
  %41 = load i64, ptr %40, align 8, !tbaa !37
  %42 = icmp ult i64 %36, %41
  br i1 %42, label %43, label %113

43:                                               ; preds = %35
  %44 = load ptr, ptr %6, align 8, !tbaa !57
  %45 = getelementptr inbounds nuw %struct.H5SM_list_t, ptr %44, i32 0, i32 2
  %46 = load ptr, ptr %45, align 8, !tbaa !97
  %47 = load i64, ptr %10, align 8, !tbaa !16
  %48 = getelementptr inbounds nuw %struct.H5SM_sohm_t, ptr %46, i64 %47
  %49 = getelementptr inbounds nuw %struct.H5SM_sohm_t, ptr %48, i32 0, i32 0
  %50 = load i32, ptr %49, align 8, !tbaa !99
  %51 = icmp ne i32 %50, -1
  br i1 %51, label %52, label %93

52:                                               ; preds = %43
  call void @llvm.lifetime.start.p0(i64 4, ptr %13) #8
  %53 = load ptr, ptr %7, align 8, !tbaa !57
  %54 = load ptr, ptr %6, align 8, !tbaa !57
  %55 = getelementptr inbounds nuw %struct.H5SM_list_t, ptr %54, i32 0, i32 2
  %56 = load ptr, ptr %55, align 8, !tbaa !97
  %57 = load i64, ptr %10, align 8, !tbaa !16
  %58 = getelementptr inbounds nuw %struct.H5SM_sohm_t, ptr %56, i64 %57
  %59 = call i32 @H5SM__message_compare(ptr noundef %53, ptr noundef %58, ptr noundef %13)
  %60 = icmp slt i32 %59, 0
  br i1 %60, label %61, label %80

61:                                               ; preds = %52
  br label %62

62:                                               ; preds = %61
  br label %63

63:                                               ; preds = %62
  br label %64

64:                                               ; preds = %63
  %65 = load i64, ptr @H5E_SOHM_g, align 8, !tbaa !16
  %66 = load i64, ptr @H5E_CANTCOMPARE_g, align 8, !tbaa !16
  %67 = call i32 (ptr, ptr, i32, i64, i64, ptr, ...) @H5E_printf_stack(ptr noundef @.str.4, ptr noundef @__func__.H5SM__find_in_list, i32 noundef 1647, i64 noundef %65, i64 noundef %66, ptr noundef @.str.125)
  br label %68

68:                                               ; preds = %64
  br label %69

69:                                               ; preds = %68
  store i8 1, ptr %12, align 1, !tbaa !18
  %70 = load i8, ptr %12, align 1, !tbaa !18, !range !20, !noundef !21
  %71 = trunc i8 %70 to i1
  %72 = zext i1 %71 to i8
  store i8 %72, ptr %12, align 1, !tbaa !18
  br label %73

73:                                               ; preds = %69
  br label %74

74:                                               ; preds = %73
  br label %75

75:                                               ; preds = %74
  store i32 -1, ptr %11, align 4, !tbaa !14
  store i32 13, ptr %14, align 4
  br label %90

76:                                               ; No predecessors!
  br label %77

77:                                               ; preds = %76
  br label %78

78:                                               ; preds = %77
  br label %79

79:                                               ; preds = %78
  br label %80

80:                                               ; preds = %79, %52
  %81 = load i32, ptr %13, align 4, !tbaa !14
  %82 = icmp eq i32 0, %81
  br i1 %82, label %83, label %89

83:                                               ; preds = %80
  %84 = load i64, ptr %10, align 8, !tbaa !16
  %85 = load ptr, ptr %9, align 8, !tbaa !50
  store i64 %84, ptr %85, align 8, !tbaa !16
  br label %86

86:                                               ; preds = %83
  store i32 0, ptr %11, align 4, !tbaa !14
  store i32 13, ptr %14, align 4
  br label %90

87:                                               ; No predecessors!
  br label %88

88:                                               ; preds = %87
  br label %89

89:                                               ; preds = %88, %80
  store i32 0, ptr %14, align 4
  br label %90

90:                                               ; preds = %86, %75, %89
  call void @llvm.lifetime.end.p0(i64 4, ptr %13) #8
  %91 = load i32, ptr %14, align 4
  switch i32 %91, label %118 [
    i32 0, label %92
    i32 13, label %115
  ]

92:                                               ; preds = %90
  br label %109

93:                                               ; preds = %43
  %94 = load ptr, ptr %8, align 8, !tbaa !50
  %95 = icmp ne ptr %94, null
  br i1 %95, label %96, label %108

96:                                               ; preds = %93
  %97 = load ptr, ptr %6, align 8, !tbaa !57
  %98 = getelementptr inbounds nuw %struct.H5SM_list_t, ptr %97, i32 0, i32 2
  %99 = load ptr, ptr %98, align 8, !tbaa !97
  %100 = load i64, ptr %10, align 8, !tbaa !16
  %101 = getelementptr inbounds nuw %struct.H5SM_sohm_t, ptr %99, i64 %100
  %102 = getelementptr inbounds nuw %struct.H5SM_sohm_t, ptr %101, i32 0, i32 0
  %103 = load i32, ptr %102, align 8, !tbaa !99
  %104 = icmp eq i32 %103, -1
  br i1 %104, label %105, label %108

105:                                              ; preds = %96
  %106 = load i64, ptr %10, align 8, !tbaa !16
  %107 = load ptr, ptr %8, align 8, !tbaa !50
  store i64 %106, ptr %107, align 8, !tbaa !16
  store ptr null, ptr %8, align 8, !tbaa !50
  br label %108

108:                                              ; preds = %105, %96, %93
  br label %109

109:                                              ; preds = %108, %92
  br label %110

110:                                              ; preds = %109
  %111 = load i64, ptr %10, align 8, !tbaa !16
  %112 = add i64 %111, 1
  store i64 %112, ptr %10, align 8, !tbaa !16
  br label %35, !llvm.loop !127

113:                                              ; preds = %35
  %114 = load ptr, ptr %9, align 8, !tbaa !50
  store i64 -1, ptr %114, align 8, !tbaa !16
  br label %115

115:                                              ; preds = %113, %90
  br label %116

116:                                              ; preds = %115, %21
  %117 = load i32, ptr %11, align 4, !tbaa !14
  store i32 %117, ptr %5, align 4
  store i32 1, ptr %14, align 4
  br label %118

118:                                              ; preds = %116, %90
  call void @llvm.lifetime.end.p0(i64 1, ptr %12) #8
  call void @llvm.lifetime.end.p0(i64 4, ptr %11) #8
  call void @llvm.lifetime.end.p0(i64 8, ptr %10) #8
  %119 = load i32, ptr %5, align 4
  ret i32 %119
}