; Function Attrs: nounwind uwtable
define internal fastcc range(i32 -1, 1) i32 @H5SM__find_in_list(ptr noundef readonly captures(none) %0, ptr noundef %1, ptr noundef writeonly captures(address) %2, ptr noundef nonnull writeonly captures(none) %3) unnamed_addr #0 {
  %5 = alloca i32, align 4
  %6 = load i8, ptr @H5SM_init_g, align 1, !tbaa !9, !range !11, !noundef !12
  %7 = trunc nuw i8 %6 to i1
  %8 = load i8, ptr @H5_libterm_g, align 1, !range !11
  %9 = trunc nuw i8 %8 to i1
  %10 = xor i1 %9, true
  %11 = select i1 %7, i1 true, i1 %10
  br i1 %11, label %12, label %45, !prof !13

12:                                               ; preds = %4
  %.not = icmp eq ptr %2, null
  br i1 %.not, label %14, label %13

13:                                               ; preds = %12
  store i64 -1, ptr %2, align 8, !tbaa !7
  br label %14

14:                                               ; preds = %13, %12
  %15 = getelementptr inbounds nuw i8, ptr %0, i64 248
  %16 = load ptr, ptr %15, align 8, !tbaa !84
  %17 = getelementptr inbounds nuw i8, ptr %16, i64 16
  %18 = load i64, ptr %17, align 8, !tbaa !31
  %.not37 = icmp eq i64 %18, 0
  br i1 %.not37, label %._crit_edge, label %.lr.ph

.lr.ph:                                           ; preds = %14
  %19 = getelementptr inbounds nuw i8, ptr %0, i64 256
  br label %20

20:                                               ; preds = %.lr.ph, %39
  %21 = phi ptr [ %16, %.lr.ph ], [ %40, %39 ]
  %.02236 = phi i64 [ 0, %.lr.ph ], [ %41, %39 ]
  %.02435 = phi ptr [ %2, %.lr.ph ], [ %.125, %39 ]
  %22 = load ptr, ptr %19, align 8, !tbaa !86
  %23 = getelementptr inbounds nuw %struct.H5SM_sohm_t, ptr %22, i64 %.02236
  %24 = load i32, ptr %23, align 8, !tbaa !87
  %.not28 = icmp eq i32 %24, -1
  br i1 %.not28, label %37, label %25

25:                                               ; preds = %20
  call void @llvm.lifetime.start.p0(i64 4, ptr nonnull %5) #11
  %26 = call i32 @H5SM__message_compare(ptr noundef %1, ptr noundef nonnull %23, ptr noundef nonnull %5) #11
  %27 = icmp slt i32 %26, 0
  br i1 %27, label %28, label %32

28:                                               ; preds = %25
  %29 = load i64, ptr @H5E_SOHM_g, align 8, !tbaa !7
  %30 = load i64, ptr @H5E_CANTCOMPARE_g, align 8, !tbaa !7
  %31 = call i32 (ptr, ptr, i32, i64, i64, ptr, ...) @H5E_printf_stack(ptr noundef nonnull @.str.4, ptr noundef nonnull @__func__.H5SM__find_in_list, i32 noundef 1647, i64 noundef %29, i64 noundef %30, ptr noundef nonnull @.str.125) #11
  br label %.thread

32:                                               ; preds = %25
  %33 = load i32, ptr %5, align 4, !tbaa !3
  %34 = icmp eq i32 %33, 0
  br i1 %34, label %35, label %36

35:                                               ; preds = %32
  store i64 %.02236, ptr %3, align 8, !tbaa !7
  br label %.thread

.thread:                                          ; preds = %28, %35
  %.2.ph = phi i32 [ 0, %35 ], [ -1, %28 ]
  call void @llvm.lifetime.end.p0(i64 4, ptr nonnull %5) #11
  br label %45

36:                                               ; preds = %32
  call void @llvm.lifetime.end.p0(i64 4, ptr nonnull %5) #11
  %.pre = load ptr, ptr %15, align 8, !tbaa !84
  br label %39

37:                                               ; preds = %20
  %.not29 = icmp eq ptr %.02435, null
  br i1 %.not29, label %39, label %38

38:                                               ; preds = %37
  store i64 %.02236, ptr %.02435, align 8, !tbaa !7
  br label %39

39:                                               ; preds = %36, %38, %37
  %40 = phi ptr [ %.pre, %36 ], [ %21, %38 ], [ %21, %37 ]
  %.125 = phi ptr [ %.02435, %36 ], [ null, %38 ], [ null, %37 ]
  %41 = add nuw i64 %.02236, 1
  %42 = getelementptr inbounds nuw i8, ptr %40, i64 16
  %43 = load i64, ptr %42, align 8, !tbaa !31
  %44 = icmp ult i64 %41, %43
  br i1 %44, label %20, label %._crit_edge, !llvm.loop !88

._crit_edge:                                      ; preds = %39, %14
  store i64 -1, ptr %3, align 8, !tbaa !7
  br label %45

45:                                               ; preds = %.thread, %4, %._crit_edge
  %.023 = phi i32 [ 0, %._crit_edge ], [ 0, %4 ], [ %.2.ph, %.thread ]
  ret i32 %.023
}